; ModuleID = '20/422.c'
source_filename = "20/422.c"
target datalayout = "e-m:e-p270:32:32-p271:32:32-p272:64:64-i64:64-f80:128-n8:16:32:64-S128"
target triple = "x86_64-pc-linux-gnu"

@.str = private unnamed_addr constant [5 x i8] c"%s%s\00", align 1
@.str.1 = private unnamed_addr constant [3 x i8] c"%c\00", align 1
@.str.2 = private unnamed_addr constant [2 x i8] c"\0A\00", align 1

; Function Attrs: noinline nounwind uwtable
define dso_local void @main() #0 {
  %1 = alloca i32, align 4
  %2 = alloca i32, align 4
  %3 = alloca i32, align 4
  %4 = alloca i32, align 4
  %5 = alloca i32, align 4
  %6 = alloca i32, align 4
  %7 = alloca i8, align 1
  %8 = alloca [20 x i8], align 16
  %9 = alloca [4 x i8], align 1
  %10 = alloca [20 x i8], align 16
  store i32 0, i32* %2, align 4
  %11 = getelementptr inbounds [20 x i8], [20 x i8]* %8, i64 0, i64 0
  %12 = getelementptr inbounds [4 x i8], [4 x i8]* %9, i64 0, i64 0
  %13 = call i32 (i8*, ...) @__isoc99_scanf(i8* getelementptr inbounds ([5 x i8], [5 x i8]* @.str, i64 0, i64 0), i8* %11, i8* %12)
  br label %14

14:                                               ; preds = %132, %0
  %15 = getelementptr inbounds [20 x i8], [20 x i8]* %8, i64 0, i64 0
  %16 = call i64 @strlen(i8* %15) #3
  %17 = trunc i64 %16 to i32
  store i32 %17, i32* %5, align 4
  %18 = getelementptr inbounds [4 x i8], [4 x i8]* %9, i64 0, i64 0
  %19 = call i64 @strlen(i8* %18) #3
  %20 = trunc i64 %19 to i32
  store i32 %20, i32* %6, align 4
  %21 = getelementptr inbounds [20 x i8], [20 x i8]* %8, i64 0, i64 0
  %22 = load i8, i8* %21, align 16
  store i8 %22, i8* %7, align 1
  store i32 0, i32* %1, align 4
  br label %23

23:                                               ; preds = %47, %14
  %24 = load i32, i32* %1, align 4
  %25 = load i32, i32* %5, align 4
  %26 = sub nsw i32 %25, 1
  %27 = icmp slt i32 %24, %26
  br i1 %27, label %28, label %50

28:                                               ; preds = %23
  %29 = load i8, i8* %7, align 1
  %30 = sext i8 %29 to i32
  %31 = load i32, i32* %1, align 4
  %32 = add nsw i32 %31, 1
  %33 = sext i32 %32 to i64
  %34 = getelementptr inbounds [20 x i8], [20 x i8]* %8, i64 0, i64 %33
  %35 = load i8, i8* %34, align 1
  %36 = sext i8 %35 to i32
  %37 = icmp slt i32 %30, %36
  br i1 %37, label %38, label %46

38:                                               ; preds = %28
  %39 = load i32, i32* %1, align 4
  %40 = add nsw i32 %39, 1
  %41 = sext i32 %40 to i64
  %42 = getelementptr inbounds [20 x i8], [20 x i8]* %8, i64 0, i64 %41
  %43 = load i8, i8* %42, align 1
  store i8 %43, i8* %7, align 1
  %44 = load i32, i32* %1, align 4
  %45 = add nsw i32 %44, 1
  store i32 %45, i32* %2, align 4
  br label %46

46:                                               ; preds = %38, %28
  br label %47

47:                                               ; preds = %46
  %48 = load i32, i32* %1, align 4
  %49 = add nsw i32 %48, 1
  store i32 %49, i32* %1, align 4
  br label %23

50:                                               ; preds = %23
  %51 = load i32, i32* %2, align 4
  %52 = add nsw i32 %51, 1
  store i32 %52, i32* %1, align 4
  store i32 0, i32* %4, align 4
  br label %53

53:                                               ; preds = %65, %50
  %54 = load i32, i32* %1, align 4
  %55 = load i32, i32* %5, align 4
  %56 = icmp slt i32 %54, %55
  br i1 %56, label %57, label %70

57:                                               ; preds = %53
  %58 = load i32, i32* %1, align 4
  %59 = sext i32 %58 to i64
  %60 = getelementptr inbounds [20 x i8], [20 x i8]* %8, i64 0, i64 %59
  %61 = load i8, i8* %60, align 1
  %62 = load i32, i32* %4, align 4
  %63 = sext i32 %62 to i64
  %64 = getelementptr inbounds [20 x i8], [20 x i8]* %10, i64 0, i64 %63
  store i8 %61, i8* %64, align 1
  br label %65

65:                                               ; preds = %57
  %66 = load i32, i32* %1, align 4
  %67 = add nsw i32 %66, 1
  store i32 %67, i32* %1, align 4
  %68 = load i32, i32* %4, align 4
  %69 = add nsw i32 %68, 1
  store i32 %69, i32* %4, align 4
  br label %53

70:                                               ; preds = %53
  %71 = load i32, i32* %4, align 4
  store i32 %71, i32* %3, align 4
  %72 = load i32, i32* %2, align 4
  %73 = add nsw i32 %72, 1
  store i32 %73, i32* %1, align 4
  store i32 0, i32* %4, align 4
  br label %74

74:                                               ; preds = %86, %70
  %75 = load i32, i32* %4, align 4
  %76 = load i32, i32* %6, align 4
  %77 = icmp slt i32 %75, %76
  br i1 %77, label %78, label %91

78:                                               ; preds = %74
  %79 = load i32, i32* %4, align 4
  %80 = sext i32 %79 to i64
  %81 = getelementptr inbounds [4 x i8], [4 x i8]* %9, i64 0, i64 %80
  %82 = load i8, i8* %81, align 1
  %83 = load i32, i32* %1, align 4
  %84 = sext i32 %83 to i64
  %85 = getelementptr inbounds [20 x i8], [20 x i8]* %8, i64 0, i64 %84
  store i8 %82, i8* %85, align 1
  br label %86

86:                                               ; preds = %78
  %87 = load i32, i32* %1, align 4
  %88 = add nsw i32 %87, 1
  store i32 %88, i32* %1, align 4
  %89 = load i32, i32* %4, align 4
  %90 = add nsw i32 %89, 1
  store i32 %90, i32* %4, align 4
  br label %74

91:                                               ; preds = %74
  %92 = load i32, i32* %2, align 4
  %93 = load i32, i32* %6, align 4
  %94 = add nsw i32 %92, %93
  %95 = add nsw i32 %94, 1
  store i32 %95, i32* %1, align 4
  store i32 0, i32* %4, align 4
  br label %96

96:                                               ; preds = %108, %91
  %97 = load i32, i32* %4, align 4
  %98 = load i32, i32* %3, align 4
  %99 = icmp sle i32 %97, %98
  br i1 %99, label %100, label %113

100:                                              ; preds = %96
  %101 = load i32, i32* %4, align 4
  %102 = sext i32 %101 to i64
  %103 = getelementptr inbounds [20 x i8], [20 x i8]* %10, i64 0, i64 %102
  %104 = load i8, i8* %103, align 1
  %105 = load i32, i32* %1, align 4
  %106 = sext i32 %105 to i64
  %107 = getelementptr inbounds [20 x i8], [20 x i8]* %8, i64 0, i64 %106
  store i8 %104, i8* %107, align 1
  br label %108

108:                                              ; preds = %100
  %109 = load i32, i32* %1, align 4
  %110 = add nsw i32 %109, 1
  store i32 %110, i32* %1, align 4
  %111 = load i32, i32* %4, align 4
  %112 = add nsw i32 %111, 1
  store i32 %112, i32* %4, align 4
  br label %96

113:                                              ; preds = %96
  store i32 0, i32* %1, align 4
  br label %114

114:                                              ; preds = %127, %113
  %115 = load i32, i32* %1, align 4
  %116 = load i32, i32* %5, align 4
  %117 = load i32, i32* %6, align 4
  %118 = add nsw i32 %116, %117
  %119 = icmp slt i32 %115, %118
  br i1 %119, label %120, label %130

120:                                              ; preds = %114
  %121 = load i32, i32* %1, align 4
  %122 = sext i32 %121 to i64
  %123 = getelementptr inbounds [20 x i8], [20 x i8]* %8, i64 0, i64 %122
  %124 = load i8, i8* %123, align 1
  %125 = sext i8 %124 to i32
  %126 = call i32 (i8*, ...) @printf(i8* getelementptr inbounds ([3 x i8], [3 x i8]* @.str.1, i64 0, i64 0), i32 %125)
  br label %127

127:                                              ; preds = %120
  %128 = load i32, i32* %1, align 4
  %129 = add nsw i32 %128, 1
  store i32 %129, i32* %1, align 4
  br label %114

130:                                              ; preds = %114
  %131 = call i32 (i8*, ...) @printf(i8* getelementptr inbounds ([2 x i8], [2 x i8]* @.str.2, i64 0, i64 0))
  br label %132

132:                                              ; preds = %130
  %133 = getelementptr inbounds [20 x i8], [20 x i8]* %8, i64 0, i64 0
  %134 = getelementptr inbounds [4 x i8], [4 x i8]* %9, i64 0, i64 0
  %135 = call i32 (i8*, ...) @__isoc99_scanf(i8* getelementptr inbounds ([5 x i8], [5 x i8]* @.str, i64 0, i64 0), i8* %133, i8* %134)
  %136 = icmp ne i32 %135, -1
  br i1 %136, label %14, label %137

137:                                              ; preds = %132
  ret void
}

declare dso_local i32 @__isoc99_scanf(i8*, ...) #1

; Function Attrs: nounwind readonly
declare dso_local i64 @strlen(i8*) #2

declare dso_local i32 @printf(i8*, ...) #1


!llvm.module.flags = !{!0}
!llvm.ident = !{!1}

!0 = !{i32 1, !"wchar_size", i32 4}
!1 = !{!"clang version 10.0.0-4ubuntu1 "}
